target datalayout = "e-m:e-p270:32:32-p271:32:32-p272:64:64-i64:64-i128:128-f80:128-n8:16:32:64-S128"
target triple = "x86_64-pc-linux-gnu"

%struct.UConverterSharedData = type { i32, i32, ptr, ptr, i8, i8, ptr, i32, %struct.UConverterMBCSTable }
%struct.UConverterMBCSTable = type { i8, i8, i8, i32, ptr, ptr, ptr, ptr, ptr, ptr, [64 x i16], ptr, ptr, i32, i8, i8, i8, i16, i32, ptr, ptr, ptr, ptr }
%struct.UConverter = type { ptr, ptr, ptr, ptr, ptr, ptr, ptr, i32, i8, i8, i8, i8, i8, [7 x i8], i32, i32, i32, i32, i8, i8, i8, i8, i8, i8, i8, i8, [8 x i8], [32 x i8], [2 x i16], [2 x i16], [32 x i16], i32, [19 x i16], [31 x i8], i8, i8, i8, i32 }
%struct.UConverterStaticData = type { i32, [60 x i8], i32, i8, i8, i8, i8, [4 x i8], i8, i8, i8, i8, i8, [19 x i8] }

; Function Attrs: mustprogress nounwind uwtable
define i32 @ucnv_MBCSGetType_77(ptr noundef %0) #4 {
  %2 = alloca i32, align 4
  %3 = alloca ptr, align 8
  store ptr %0, ptr %3, align 8, !tbaa !60
  %4 = load ptr, ptr %3, align 8, !tbaa !60
  %5 = getelementptr inbounds nuw %struct.UConverter, ptr %4, i32 0, i32 6
  %6 = load ptr, ptr %5, align 8, !tbaa !64
  %7 = getelementptr inbounds nuw %struct.UConverterSharedData, ptr %6, i32 0, i32 8
  %8 = getelementptr inbounds nuw %struct.UConverterMBCSTable, ptr %7, i32 0, i32 0
  %9 = load i8, ptr %8, align 8, !tbaa !65
  %10 = zext i8 %9 to i32
  %11 = icmp eq i32 %10, 1
  br i1 %11, label %12, label %13

12:                                               ; preds = %1
  store i32 0, ptr %2, align 4
  br label %48

13:                                               ; preds = %1
  %14 = load ptr, ptr %3, align 8, !tbaa !60
  %15 = getelementptr inbounds nuw %struct.UConverter, ptr %14, i32 0, i32 6
  %16 = load ptr, ptr %15, align 8, !tbaa !64
  %17 = getelementptr inbounds nuw %struct.UConverterSharedData, ptr %16, i32 0, i32 8
  %18 = getelementptr inbounds nuw %struct.UConverterMBCSTable, ptr %17, i32 0, i32 14
  %19 = load i8, ptr %18, align 4, !tbaa !52
  %20 = zext i8 %19 to i32
  %21 = and i32 %20, 255
  %22 = icmp eq i32 %21, 12
  br i1 %22, label %23, label %24

23:                                               ; preds = %13
  store i32 9, ptr %2, align 4
  br label %48

24:                                               ; preds = %13
  %25 = load ptr, ptr %3, align 8, !tbaa !60
  %26 = getelementptr inbounds nuw %struct.UConverter, ptr %25, i32 0, i32 6
  %27 = load ptr, ptr %26, align 8, !tbaa !64
  %28 = getelementptr inbounds nuw %struct.UConverterSharedData, ptr %27, i32 0, i32 3
  %29 = load ptr, ptr %28, align 8, !tbaa !142
  %30 = getelementptr inbounds nuw %struct.UConverterStaticData, ptr %29, i32 0, i32 5
  %31 = load i8, ptr %30, align 2, !tbaa !143
  %32 = sext i8 %31 to i32
  %33 = icmp eq i32 %32, 2
  br i1 %33, label %34, label %45

34:                                               ; preds = %24
  %35 = load ptr, ptr %3, align 8, !tbaa !60
  %36 = getelementptr inbounds nuw %struct.UConverter, ptr %35, i32 0, i32 6
  %37 = load ptr, ptr %36, align 8, !tbaa !64
  %38 = getelementptr inbounds nuw %struct.UConverterSharedData, ptr %37, i32 0, i32 3
  %39 = load ptr, ptr %38, align 8, !tbaa !142
  %40 = getelementptr inbounds nuw %struct.UConverterStaticData, ptr %39, i32 0, i32 6
  %41 = load i8, ptr %40, align 1, !tbaa !145
  %42 = sext i8 %41 to i32
  %43 = icmp eq i32 %42, 2
  br i1 %43, label %44, label %45

44:                                               ; preds = %34
  store i32 1, ptr %2, align 4
  br label %48

45:                                               ; preds = %34, %24
  br label %46

46:                                               ; preds = %45
  br label %47

47:                                               ; preds = %46
  store i32 2, ptr %2, align 4
  br label %48

48:                                               ; preds = %47, %44, %23, %12
  %49 = load i32, ptr %2, align 4
  ret i32 %49
}