; Function Attrs: mustprogress nofree norecurse nosync nounwind willreturn memory(read, inaccessiblemem: none) uwtable
define range(i32 0, 10) i32 @ucnv_MBCSGetType_77(ptr noundef readonly captures(none) %0) local_unnamed_addr #3 {
  %2 = getelementptr inbounds nuw i8, ptr %0, i64 48
  %3 = load ptr, ptr %2, align 8, !tbaa !50
  %4 = getelementptr inbounds nuw i8, ptr %3, i64 48
  %5 = load i8, ptr %4, align 8, !tbaa !51
  %6 = icmp eq i8 %5, 1
  br i1 %6, label %22, label %7

7:                                                ; preds = %1
  %8 = getelementptr inbounds nuw i8, ptr %3, i64 252
  %9 = load i8, ptr %8, align 4, !tbaa !39
  %10 = icmp eq i8 %9, 12
  br i1 %10, label %22, label %11

11:                                               ; preds = %7
  %12 = getelementptr inbounds nuw i8, ptr %3, i64 16
  %13 = load ptr, ptr %12, align 8, !tbaa !117
  %14 = getelementptr inbounds nuw i8, ptr %13, i64 70
  %15 = load i8, ptr %14, align 2, !tbaa !118
  %16 = icmp eq i8 %15, 2
  br i1 %16, label %17, label %21

17:                                               ; preds = %11
  %18 = getelementptr inbounds nuw i8, ptr %13, i64 71
  %19 = load i8, ptr %18, align 1, !tbaa !120
  %20 = icmp eq i8 %19, 2
  br i1 %20, label %22, label %21

21:                                               ; preds = %17, %11
  br label %22

22:                                               ; preds = %17, %7, %1, %21
  %.0 = phi i32 [ 2, %21 ], [ 0, %1 ], [ 9, %7 ], [ 1, %17 ]
  ret i32 %.0
}